; ModuleID = '10/1320.c'
source_filename = "10/1320.c"
target datalayout = "e-m:e-p270:32:32-p271:32:32-p272:64:64-i64:64-f80:128-n8:16:32:64-S128"
target triple = "x86_64-pc-linux-gnu"

@.str = private unnamed_addr constant [3 x i8] c"%d\00", align 1

; Function Attrs: noinline nounwind uwtable
define dso_local i32 @max(i32 %0, i32 %1) #0 {
  %3 = alloca i32, align 4
  %4 = alloca i32, align 4
  %5 = alloca i32, align 4
  store i32 %0, i32* %4, align 4
  store i32 %1, i32* %5, align 4
  %6 = load i32, i32* %4, align 4
  %7 = load i32, i32* %5, align 4
  %8 = icmp sge i32 %6, %7
  br i1 %8, label %9, label %11

9:                                                ; preds = %2
  %10 = load i32, i32* %4, align 4
  store i32 %10, i32* %3, align 4
  br label %13

11:                                               ; preds = %2
  %12 = load i32, i32* %5, align 4
  store i32 %12, i32* %3, align 4
  br label %13

13:                                               ; preds = %11, %9
  %14 = load i32, i32* %3, align 4
  ret i32 %14
}

; Function Attrs: noinline nounwind uwtable
define dso_local i32 @main() #0 {
  %1 = alloca i32, align 4
  %2 = alloca i32, align 4
  %3 = alloca i32, align 4
  %4 = alloca i32, align 4
  %5 = alloca i32, align 4
  %6 = alloca i32, align 4
  %7 = alloca i32, align 4
  %8 = alloca i8*, align 8
  %9 = alloca i64, align 8
  %10 = alloca i64, align 8
  %11 = alloca i32, align 4
  store i32 0, i32* %1, align 4
  store i32 0, i32* %7, align 4
  %12 = call i32 (i8*, ...) @__isoc99_scanf(i8* getelementptr inbounds ([3 x i8], [3 x i8]* @.str, i64 0, i64 0), i32* %6)
  %13 = load i32, i32* %6, align 4
  %14 = zext i32 %13 to i64
  %15 = call i8* @llvm.stacksave()
  store i8* %15, i8** %8, align 8
  %16 = alloca i32, i64 %14, align 16
  store i64 %14, i64* %9, align 8
  store i32 0, i32* %2, align 4
  br label %17

17:                                               ; preds = %26, %0
  %18 = load i32, i32* %2, align 4
  %19 = load i32, i32* %6, align 4
  %20 = icmp slt i32 %18, %19
  br i1 %20, label %21, label %29

21:                                               ; preds = %17
  %22 = load i32, i32* %2, align 4
  %23 = sext i32 %22 to i64
  %24 = getelementptr inbounds i32, i32* %16, i64 %23
  %25 = call i32 (i8*, ...) @__isoc99_scanf(i8* getelementptr inbounds ([3 x i8], [3 x i8]* @.str, i64 0, i64 0), i32* %24)
  br label %26

26:                                               ; preds = %21
  %27 = load i32, i32* %2, align 4
  %28 = add nsw i32 %27, 1
  store i32 %28, i32* %2, align 4
  br label %17

29:                                               ; preds = %17
  %30 = load i32, i32* %6, align 4
  %31 = zext i32 %30 to i64
  %32 = alloca i32, i64 %31, align 16
  store i64 %31, i64* %10, align 8
  store i32 0, i32* %11, align 4
  store i32 0, i32* %2, align 4
  br label %33

33:                                               ; preds = %41, %29
  %34 = load i32, i32* %2, align 4
  %35 = load i32, i32* %6, align 4
  %36 = icmp slt i32 %34, %35
  br i1 %36, label %37, label %44

37:                                               ; preds = %33
  %38 = load i32, i32* %2, align 4
  %39 = sext i32 %38 to i64
  %40 = getelementptr inbounds i32, i32* %32, i64 %39
  store i32 0, i32* %40, align 4
  br label %41

41:                                               ; preds = %37
  %42 = load i32, i32* %2, align 4
  %43 = add nsw i32 %42, 1
  store i32 %43, i32* %2, align 4
  br label %33

44:                                               ; preds = %33
  %45 = load i32, i32* %6, align 4
  %46 = sub nsw i32 %45, 1
  %47 = sext i32 %46 to i64
  %48 = getelementptr inbounds i32, i32* %32, i64 %47
  store i32 1, i32* %48, align 4
  %49 = load i32, i32* %6, align 4
  %50 = sub nsw i32 %49, 2
  store i32 %50, i32* %2, align 4
  br label %51

51:                                               ; preds = %89, %44
  %52 = load i32, i32* %2, align 4
  %53 = icmp sge i32 %52, 0
  br i1 %53, label %54, label %92

54:                                               ; preds = %51
  store i32 0, i32* %11, align 4
  %55 = load i32, i32* %6, align 4
  %56 = sub nsw i32 %55, 1
  store i32 %56, i32* %3, align 4
  br label %57

57:                                               ; preds = %80, %54
  %58 = load i32, i32* %3, align 4
  %59 = load i32, i32* %2, align 4
  %60 = icmp sgt i32 %58, %59
  br i1 %60, label %61, label %83

61:                                               ; preds = %57
  %62 = load i32, i32* %2, align 4
  %63 = sext i32 %62 to i64
  %64 = getelementptr inbounds i32, i32* %16, i64 %63
  %65 = load i32, i32* %64, align 4
  %66 = load i32, i32* %3, align 4
  %67 = sext i32 %66 to i64
  %68 = getelementptr inbounds i32, i32* %16, i64 %67
  %69 = load i32, i32* %68, align 4
  %70 = icmp sge i32 %65, %69
  br i1 %70, label %71, label %78

71:                                               ; preds = %61
  %72 = load i32, i32* %11, align 4
  %73 = load i32, i32* %3, align 4
  %74 = sext i32 %73 to i64
  %75 = getelementptr inbounds i32, i32* %32, i64 %74
  %76 = load i32, i32* %75, align 4
  %77 = call i32 @max(i32 %72, i32 %76)
  store i32 %77, i32* %11, align 4
  br label %79

78:                                               ; preds = %61
  br label %80

79:                                               ; preds = %71
  br label %80

80:                                               ; preds = %79, %78
  %81 = load i32, i32* %3, align 4
  %82 = add nsw i32 %81, -1
  store i32 %82, i32* %3, align 4
  br label %57

83:                                               ; preds = %57
  %84 = load i32, i32* %11, align 4
  %85 = add nsw i32 %84, 1
  %86 = load i32, i32* %2, align 4
  %87 = sext i32 %86 to i64
  %88 = getelementptr inbounds i32, i32* %32, i64 %87
  store i32 %85, i32* %88, align 4
  br label %89

89:                                               ; preds = %83
  %90 = load i32, i32* %2, align 4
  %91 = add nsw i32 %90, -1
  store i32 %91, i32* %2, align 4
  br label %51

92:                                               ; preds = %51
  store i32 0, i32* %2, align 4
  br label %93

93:                                               ; preds = %104, %92
  %94 = load i32, i32* %2, align 4
  %95 = load i32, i32* %6, align 4
  %96 = icmp slt i32 %94, %95
  br i1 %96, label %97, label %107

97:                                               ; preds = %93
  %98 = load i32, i32* %7, align 4
  %99 = load i32, i32* %2, align 4
  %100 = sext i32 %99 to i64
  %101 = getelementptr inbounds i32, i32* %32, i64 %100
  %102 = load i32, i32* %101, align 4
  %103 = call i32 @max(i32 %98, i32 %102)
  store i32 %103, i32* %7, align 4
  br label %104

104:                                              ; preds = %97
  %105 = load i32, i32* %2, align 4
  %106 = add nsw i32 %105, 1
  store i32 %106, i32* %2, align 4
  br label %93

107:                                              ; preds = %93
  %108 = load i32, i32* %7, align 4
  %109 = call i32 (i8*, ...) @printf(i8* getelementptr inbounds ([3 x i8], [3 x i8]* @.str, i64 0, i64 0), i32 %108)
  %110 = load i8*, i8** %8, align 8
  call void @llvm.stackrestore(i8* %110)
  %111 = load i32, i32* %1, align 4
  ret i32 %111
}

declare dso_local i32 @__isoc99_scanf(i8*, ...) #1

; Function Attrs: nounwind
declare i8* @llvm.stacksave() #2

declare dso_local i32 @printf(i8*, ...) #1

; Function Attrs: nounwind
declare void @llvm.stackrestore(i8*) #2


!llvm.module.flags = !{!0}
!llvm.ident = !{!1}

!0 = !{i32 1, !"wchar_size", i32 4}
!1 = !{!"clang version 10.0.0-4ubuntu1 "}
