; ModuleID = 'source-C-CXX/9/1320.c'
source_filename = "source-C-CXX/9/1320.c"
target datalayout = "e-m:e-p270:32:32-p271:32:32-p272:64:64-i64:64-f80:128-n8:16:32:64-S128"
target triple = "x86_64-pc-linux-gnu"

@.str = private unnamed_addr constant [3 x i8] c"%d\00", align 1

; Function Attrs: mustprogress nofree norecurse nosync nounwind readnone sspstrong uwtable willreturn
define dso_local i32 @max(i32 %0, i32 %1) local_unnamed_addr #0 {
  %3 = icmp slt i32 %0, %1
  %4 = select i1 %3, i32 %1, i32 %0
  ret i32 %4
}

; Function Attrs: nofree nounwind sspstrong uwtable
define dso_local i32 @main() local_unnamed_addr #1 {
  %1 = alloca i32, align 4
  %2 = bitcast i32* %1 to i8*
  call void @llvm.lifetime.start.p0i8(i64 4, i8* nonnull %2) #7
  %3 = call i32 (i8*, ...) @__isoc99_scanf(i8* getelementptr inbounds ([3 x i8], [3 x i8]* @.str, i64 0, i64 0), i32* nonnull %1)
  %4 = load i32, i32* %1, align 4, !tbaa !5
  %5 = zext i32 %4 to i64
  %6 = call i8* @llvm.stacksave()
  %7 = alloca i32, i64 %5, align 16
  %8 = load i32, i32* %1, align 4, !tbaa !5
  %9 = icmp sgt i32 %8, 0
  br i1 %9, label %10, label %22

10:                                               ; preds = %0, %10
  %11 = phi i64 [ %14, %10 ], [ 0, %0 ]
  %12 = getelementptr inbounds i32, i32* %7, i64 %11
  %13 = call i32 (i8*, ...) @__isoc99_scanf(i8* getelementptr inbounds ([3 x i8], [3 x i8]* @.str, i64 0, i64 0), i32* nonnull %12)
  %14 = add nuw nsw i64 %11, 1
  %15 = load i32, i32* %1, align 4, !tbaa !5
  %16 = sext i32 %15 to i64
  %17 = icmp slt i64 %14, %16
  br i1 %17, label %10, label %18, !llvm.loop !9

18:                                               ; preds = %10
  %19 = zext i32 %15 to i64
  %20 = alloca i32, i64 %19, align 16
  %21 = icmp sgt i32 %15, 0
  br i1 %21, label %25, label %142

22:                                               ; preds = %0
  %23 = zext i32 %8 to i64
  %24 = alloca i32, i64 %23, align 16
  br label %142

25:                                               ; preds = %18
  %26 = bitcast i32* %20 to i8*
  %27 = shl nuw nsw i64 %19, 2
  call void @llvm.memset.p0i8.i64(i8* nonnull align 16 %26, i8 0, i64 %27, i1 false)
  %28 = add nsw i32 %15, -1
  %29 = zext i32 %28 to i64
  %30 = getelementptr inbounds i32, i32* %20, i64 %29
  store i32 1, i32* %30, align 4, !tbaa !5
  %31 = icmp eq i32 %15, 1
  br i1 %31, label %44, label %32

32:                                               ; preds = %25
  %33 = zext i32 %15 to i64
  %34 = add nsw i64 %33, -1
  %35 = add nsw i32 %15, -2
  %36 = zext i32 %35 to i64
  br label %37

37:                                               ; preds = %32, %127
  %38 = phi i64 [ %36, %32 ], [ %131, %127 ]
  %39 = icmp slt i64 %38, %29
  br i1 %39, label %40, label %127

40:                                               ; preds = %37
  %41 = getelementptr inbounds i32, i32* %7, i64 %38
  %42 = load i32, i32* %41, align 4, !tbaa !5
  br label %112

43:                                               ; preds = %127
  br i1 %21, label %44, label %148

44:                                               ; preds = %25, %43
  %45 = icmp ult i32 %15, 8
  br i1 %45, label %109, label %46

46:                                               ; preds = %44
  %47 = and i64 %19, 4294967288
  %48 = add nsw i64 %47, -8
  %49 = lshr exact i64 %48, 3
  %50 = add nuw nsw i64 %49, 1
  %51 = and i64 %50, 1
  %52 = icmp eq i64 %48, 0
  br i1 %52, label %84, label %53

53:                                               ; preds = %46
  %54 = and i64 %50, 4611686018427387902
  br label %55

55:                                               ; preds = %55, %53
  %56 = phi i64 [ 0, %53 ], [ %81, %55 ]
  %57 = phi <4 x i32> [ zeroinitializer, %53 ], [ %79, %55 ]
  %58 = phi <4 x i32> [ zeroinitializer, %53 ], [ %80, %55 ]
  %59 = phi i64 [ %54, %53 ], [ %82, %55 ]
  %60 = getelementptr inbounds i32, i32* %20, i64 %56
  %61 = bitcast i32* %60 to <4 x i32>*
  %62 = load <4 x i32>, <4 x i32>* %61, align 16, !tbaa !5
  %63 = getelementptr inbounds i32, i32* %60, i64 4
  %64 = bitcast i32* %63 to <4 x i32>*
  %65 = load <4 x i32>, <4 x i32>* %64, align 16, !tbaa !5
  %66 = icmp slt <4 x i32> %57, %62
  %67 = icmp slt <4 x i32> %58, %65
  %68 = select <4 x i1> %66, <4 x i32> %62, <4 x i32> %57
  %69 = select <4 x i1> %67, <4 x i32> %65, <4 x i32> %58
  %70 = or i64 %56, 8
  %71 = getelementptr inbounds i32, i32* %20, i64 %70
  %72 = bitcast i32* %71 to <4 x i32>*
  %73 = load <4 x i32>, <4 x i32>* %72, align 16, !tbaa !5
  %74 = getelementptr inbounds i32, i32* %71, i64 4
  %75 = bitcast i32* %74 to <4 x i32>*
  %76 = load <4 x i32>, <4 x i32>* %75, align 16, !tbaa !5
  %77 = icmp slt <4 x i32> %68, %73
  %78 = icmp slt <4 x i32> %69, %76
  %79 = select <4 x i1> %77, <4 x i32> %73, <4 x i32> %68
  %80 = select <4 x i1> %78, <4 x i32> %76, <4 x i32> %69
  %81 = add nuw i64 %56, 16
  %82 = add i64 %59, -2
  %83 = icmp eq i64 %82, 0
  br i1 %83, label %84, label %55, !llvm.loop !11

84:                                               ; preds = %55, %46
  %85 = phi <4 x i32> [ undef, %46 ], [ %79, %55 ]
  %86 = phi <4 x i32> [ undef, %46 ], [ %80, %55 ]
  %87 = phi i64 [ 0, %46 ], [ %81, %55 ]
  %88 = phi <4 x i32> [ zeroinitializer, %46 ], [ %79, %55 ]
  %89 = phi <4 x i32> [ zeroinitializer, %46 ], [ %80, %55 ]
  %90 = icmp eq i64 %51, 0
  br i1 %90, label %102, label %91

91:                                               ; preds = %84
  %92 = getelementptr inbounds i32, i32* %20, i64 %87
  %93 = bitcast i32* %92 to <4 x i32>*
  %94 = load <4 x i32>, <4 x i32>* %93, align 16, !tbaa !5
  %95 = getelementptr inbounds i32, i32* %92, i64 4
  %96 = bitcast i32* %95 to <4 x i32>*
  %97 = load <4 x i32>, <4 x i32>* %96, align 16, !tbaa !5
  %98 = icmp slt <4 x i32> %89, %97
  %99 = select <4 x i1> %98, <4 x i32> %97, <4 x i32> %89
  %100 = icmp slt <4 x i32> %88, %94
  %101 = select <4 x i1> %100, <4 x i32> %94, <4 x i32> %88
  br label %102

102:                                              ; preds = %84, %91
  %103 = phi <4 x i32> [ %85, %84 ], [ %101, %91 ]
  %104 = phi <4 x i32> [ %86, %84 ], [ %99, %91 ]
  %105 = icmp sgt <4 x i32> %103, %104
  %106 = select <4 x i1> %105, <4 x i32> %103, <4 x i32> %104
  %107 = call i32 @llvm.vector.reduce.smax.v4i32(<4 x i32> %106)
  %108 = icmp eq i64 %47, %19
  br i1 %108, label %148, label %109

109:                                              ; preds = %44, %102
  %110 = phi i64 [ 0, %44 ], [ %47, %102 ]
  %111 = phi i32 [ 0, %44 ], [ %107, %102 ]
  br label %133

112:                                              ; preds = %40, %123
  %113 = phi i64 [ %34, %40 ], [ %125, %123 ]
  %114 = phi i32 [ 0, %40 ], [ %124, %123 ]
  %115 = getelementptr inbounds i32, i32* %7, i64 %113
  %116 = load i32, i32* %115, align 4, !tbaa !5
  %117 = icmp slt i32 %42, %116
  br i1 %117, label %123, label %118

118:                                              ; preds = %112
  %119 = getelementptr inbounds i32, i32* %20, i64 %113
  %120 = load i32, i32* %119, align 4, !tbaa !5
  %121 = icmp slt i32 %114, %120
  %122 = select i1 %121, i32 %120, i32 %114
  br label %123

123:                                              ; preds = %112, %118
  %124 = phi i32 [ %122, %118 ], [ %114, %112 ]
  %125 = add nsw i64 %113, -1
  %126 = icmp sgt i64 %125, %38
  br i1 %126, label %112, label %127, !llvm.loop !13

127:                                              ; preds = %123, %37
  %128 = phi i32 [ 0, %37 ], [ %124, %123 ]
  %129 = add nsw i32 %128, 1
  %130 = getelementptr inbounds i32, i32* %20, i64 %38
  store i32 %129, i32* %130, align 4, !tbaa !5
  %131 = add nsw i64 %38, -1
  %132 = icmp sgt i64 %38, 0
  br i1 %132, label %37, label %43, !llvm.loop !14

133:                                              ; preds = %109, %133
  %134 = phi i64 [ %140, %133 ], [ %110, %109 ]
  %135 = phi i32 [ %139, %133 ], [ %111, %109 ]
  %136 = getelementptr inbounds i32, i32* %20, i64 %134
  %137 = load i32, i32* %136, align 4, !tbaa !5
  %138 = icmp slt i32 %135, %137
  %139 = select i1 %138, i32 %137, i32 %135
  %140 = add nuw nsw i64 %134, 1
  %141 = icmp eq i64 %140, %19
  br i1 %141, label %148, label %133, !llvm.loop !15

142:                                              ; preds = %18, %22
  %143 = phi i32 [ %8, %22 ], [ %15, %18 ]
  %144 = phi i32* [ %24, %22 ], [ %20, %18 ]
  %145 = add nsw i32 %143, -1
  %146 = sext i32 %145 to i64
  %147 = getelementptr inbounds i32, i32* %144, i64 %146
  store i32 1, i32* %147, align 4, !tbaa !5
  br label %148

148:                                              ; preds = %133, %102, %142, %43
  %149 = phi i32 [ 0, %43 ], [ 0, %142 ], [ %107, %102 ], [ %139, %133 ]
  %150 = call i32 (i8*, ...) @printf(i8* nonnull dereferenceable(1) getelementptr inbounds ([3 x i8], [3 x i8]* @.str, i64 0, i64 0), i32 %149)
  call void @llvm.stackrestore(i8* %6)
  call void @llvm.lifetime.end.p0i8(i64 4, i8* nonnull %2) #7
  ret i32 0
}

; Function Attrs: argmemonly mustprogress nofree nosync nounwind willreturn
declare void @llvm.lifetime.start.p0i8(i64 immarg, i8* nocapture) #2

; Function Attrs: nofree nounwind
declare noundef i32 @__isoc99_scanf(i8* nocapture noundef readonly, ...) local_unnamed_addr #3

; Function Attrs: mustprogress nofree nosync nounwind willreturn
declare i8* @llvm.stacksave() #4

; Function Attrs: nofree nounwind
declare noundef i32 @printf(i8* nocapture noundef readonly, ...) local_unnamed_addr #3

; Function Attrs: argmemonly mustprogress nofree nosync nounwind willreturn
declare void @llvm.lifetime.end.p0i8(i64 immarg, i8* nocapture) #2

; Function Attrs: mustprogress nofree nosync nounwind willreturn
declare void @llvm.stackrestore(i8*) #4

; Function Attrs: argmemonly nofree nounwind willreturn writeonly
declare void @llvm.memset.p0i8.i64(i8* nocapture writeonly, i8, i64, i1 immarg) #5

; Function Attrs: nofree nosync nounwind readnone willreturn
declare i32 @llvm.vector.reduce.smax.v4i32(<4 x i32>) #6


!llvm.module.flags = !{!0, !1, !2, !3}
!llvm.ident = !{!4}

!0 = !{i32 1, !"wchar_size", i32 4}
!1 = !{i32 7, !"PIC Level", i32 2}
!2 = !{i32 7, !"PIE Level", i32 2}
!3 = !{i32 7, !"uwtable", i32 1}
!4 = !{!"clang version 13.0.0"}
!5 = !{!6, !6, i64 0}
!6 = !{!"int", !7, i64 0}
!7 = !{!"omnipotent char", !8, i64 0}
!8 = !{!"Simple C/C++ TBAA"}
!9 = distinct !{!9, !10}
!10 = !{!"llvm.loop.mustprogress"}
!11 = distinct !{!11, !10, !12}
!12 = !{!"llvm.loop.isvectorized", i32 1}
!13 = distinct !{!13, !10}
!14 = distinct !{!14, !10}
!15 = distinct !{!15, !10, !16, !12}
!16 = !{!"llvm.loop.unroll.runtime.disable"}
